; Function Attrs: mustprogress uwtable
define noundef zeroext i1 @_ZN7rocksdb21RandomAccessCacheFile4OpenEb(ptr noundef nonnull align 8 dereferenceable(184) %this, i1 noundef zeroext %enable_direct_reads) local_unnamed_addr #0 align 2 personality ptr @__gxx_personality_v0 {
entry:
  %rwlock_ = getelementptr inbounds i8, ptr %this, i64 32
  tail call void @_ZN7rocksdb4port7RWMutex9WriteLockEv(ptr noundef nonnull align 8 dereferenceable(56) %rwlock_)
  %call = invoke noundef zeroext i1 @_ZN7rocksdb21RandomAccessCacheFile8OpenImplEb(ptr noundef nonnull align 8 dereferenceable(184) %this, i1 noundef zeroext %enable_direct_reads)
          to label %invoke.cont unwind label %lpad

invoke.cont:                                      ; preds = %entry
  invoke void @_ZN7rocksdb4port7RWMutex11WriteUnlockEv(ptr noundef nonnull align 8 dereferenceable(56) %rwlock_)
          to label %_ZN7rocksdb9WriteLockD2Ev.exit unwind label %terminate.lpad.i

terminate.lpad.i:                                 ; preds = %invoke.cont
  %0 = landingpad { ptr, i32 }
          catch ptr null
  %1 = extractvalue { ptr, i32 } %0, 0
  tail call void @__clang_call_terminate(ptr %1) #18
  unreachable

_ZN7rocksdb9WriteLockD2Ev.exit:                   ; preds = %invoke.cont
  ret i1 %call

lpad:                                             ; preds = %entry
  %2 = landingpad { ptr, i32 }
          cleanup
  invoke void @_ZN7rocksdb4port7RWMutex11WriteUnlockEv(ptr noundef nonnull align 8 dereferenceable(56) %rwlock_)
          to label %_ZN7rocksdb9WriteLockD2Ev.exit2 unwind label %terminate.lpad.i1

terminate.lpad.i1:                                ; preds = %lpad
  %3 = landingpad { ptr, i32 }
          catch ptr null
  %4 = extractvalue { ptr, i32 } %3, 0
  tail call void @__clang_call_terminate(ptr %4) #18
  unreachable

_ZN7rocksdb9WriteLockD2Ev.exit2:                  ; preds = %lpad
  resume { ptr, i32 } %2
}